target datalayout = "e-m:e-p270:32:32-p271:32:32-p272:64:64-i64:64-i128:128-f80:128-n8:16:32:64-S128"
target triple = "x86_64-unknown-linux-gnu"

%"class.pugi::xpath_node" = type { %"class.pugi::xml_node", %"class.pugi::xml_attribute" }
%"class.pugi::xml_node" = type { ptr }
%"class.pugi::xml_attribute" = type { ptr }

; Function Attrs: mustprogress nounwind uwtable
define noundef ptr @_ZNK4pugi13xml_attributecvPFvPPPS0_EEv(ptr noundef nonnull align 8 dereferenceable(8) %this) #0 align 2 {
entry:
  %this.addr = alloca ptr, align 8
  store ptr %this, ptr %this.addr, align 8
  %this1 = load ptr, ptr %this.addr, align 8
  %_attr = getelementptr inbounds %"class.pugi::xml_attribute", ptr %this1, i32 0, i32 0
  %0 = load ptr, ptr %_attr, align 8
  %tobool = icmp ne ptr %0, null
  %cond = select i1 %tobool, ptr @_ZN4pugiL30unspecified_bool_xml_attributeEPPPNS_13xml_attributeE, ptr null
  ret ptr %cond
}

; Function Attrs: mustprogress nounwind uwtable
define noundef ptr @_ZNK4pugi8xml_nodecvPFvPPPS0_EEv(ptr noundef nonnull align 8 dereferenceable(8) %this) #0 align 2 {
entry:
  %this.addr = alloca ptr, align 8
  store ptr %this, ptr %this.addr, align 8
  %this1 = load ptr, ptr %this.addr, align 8
  %_root = getelementptr inbounds %"class.pugi::xml_node", ptr %this1, i32 0, i32 0
  %0 = load ptr, ptr %_root, align 8
  %tobool = icmp ne ptr %0, null
  %cond = select i1 %tobool, ptr @_ZN4pugiL25unspecified_bool_xml_nodeEPPPNS_8xml_nodeE, ptr null
  ret ptr %cond
}

; Function Attrs: mustprogress nounwind uwtable
define noundef ptr @_ZNK4pugi10xpath_nodecvPFvPPPS0_EEv(ptr noundef nonnull align 8 dereferenceable(16) %this) #0 align 2 {
entry:
  %this.addr = alloca ptr, align 8
  store ptr %this, ptr %this.addr, align 8
  %this1 = load ptr, ptr %this.addr, align 8
  %_node = getelementptr inbounds %"class.pugi::xpath_node", ptr %this1, i32 0, i32 0
  %call = call noundef ptr @_ZNK4pugi8xml_nodecvPFvPPPS0_EEv(ptr noundef nonnull align 8 dereferenceable(8) %_node)
  %tobool = icmp ne ptr %call, null
  br i1 %tobool, label %lor.end, label %lor.rhs

lor.rhs:                                          ; preds = %entry
  %_attribute = getelementptr inbounds %"class.pugi::xpath_node", ptr %this1, i32 0, i32 1
  %call2 = call noundef ptr @_ZNK4pugi13xml_attributecvPFvPPPS0_EEv(ptr noundef nonnull align 8 dereferenceable(8) %_attribute)
  %tobool3 = icmp ne ptr %call2, null
  br label %lor.end

lor.end:                                          ; preds = %lor.rhs, %entry
  %0 = phi i1 [ true, %entry ], [ %tobool3, %lor.rhs ]
  %cond = select i1 %0, ptr @_ZN4pugiL27unspecified_bool_xpath_nodeEPPPNS_10xpath_nodeE, ptr null
  ret ptr %cond
}