; Function Attrs: mustprogress nofree norecurse nosync nounwind willreturn memory(argmem: read) uwtable
define noundef ptr @_ZNK4pugi10xpath_nodecvPFvPPPS0_EEv(ptr nocapture noundef nonnull readonly align 8 dereferenceable(16) %this) local_unnamed_addr #8 align 2 {
entry:
  %0 = load ptr, ptr %this, align 8
  %tobool.not.i = icmp eq ptr %0, null
  %_attribute = getelementptr inbounds i8, ptr %this, i64 8
  %1 = load ptr, ptr %_attribute, align 8
  %tobool.not.i1 = icmp eq ptr %1, null
  %2 = select i1 %tobool.not.i, i1 %tobool.not.i1, i1 false
  %cond = select i1 %2, ptr null, ptr @_ZN4pugiL27unspecified_bool_xpath_nodeEPPPNS_10xpath_nodeE
  ret ptr %cond
}